target datalayout = "e-m:e-p270:32:32-p271:32:32-p272:64:64-i64:64-i128:128-f80:128-n8:16:32:64-S128"
target triple = "x86_64-pc-linux-gnu"

%"class.google::protobuf::io::CodedOutputStream" = type { %"class.google::protobuf::io::EpsCopyOutputStream", ptr, i64 }
%"class.google::protobuf::io::EpsCopyOutputStream" = type <{ ptr, ptr, [32 x i8], ptr, i8, i8, i8, [5 x i8] }>

; Function Attrs: mustprogress uwtable
define linkonce_odr hidden noundef ptr @_ZN6google8protobuf2io19EpsCopyOutputStream8WriteRawEPKviPh(ptr noundef nonnull align 8 dereferenceable(59) %0, ptr noundef %1, i32 noundef %2, ptr noundef %3) #4 comdat align 2 {
  %5 = alloca ptr, align 8
  %6 = alloca ptr, align 8
  %7 = alloca ptr, align 8
  %8 = alloca i32, align 4
  %9 = alloca ptr, align 8
  store ptr %0, ptr %6, align 8, !tbaa !108
  store ptr %1, ptr %7, align 8, !tbaa !53
  store i32 %2, ptr %8, align 4, !tbaa !8
  store ptr %3, ptr %9, align 8, !tbaa !78
  %10 = load ptr, ptr %6, align 8
  %11 = getelementptr inbounds nuw %"class.google::protobuf::io::EpsCopyOutputStream", ptr %10, i32 0, i32 0
  %12 = load ptr, ptr %11, align 8, !tbaa !110
  %13 = load ptr, ptr %9, align 8, !tbaa !78
  %14 = ptrtoint ptr %12 to i64
  %15 = ptrtoint ptr %13 to i64
  %16 = sub i64 %14, %15
  %17 = load i32, ptr %8, align 4, !tbaa !8
  %18 = sext i32 %17 to i64
  %19 = icmp slt i64 %16, %18
  %20 = zext i1 %19 to i64
  %21 = call i64 @llvm.expect.i64(i64 %20, i64 0)
  %22 = icmp ne i64 %21, 0
  br i1 %22, label %23, label %28

23:                                               ; preds = %4
  %24 = load ptr, ptr %7, align 8, !tbaa !53
  %25 = load i32, ptr %8, align 4, !tbaa !8
  %26 = load ptr, ptr %9, align 8, !tbaa !78
  %27 = call noundef ptr @_ZN6google8protobuf2io19EpsCopyOutputStream16WriteRawFallbackEPKviPh(ptr noundef nonnull align 8 dereferenceable(59) %10, ptr noundef %24, i32 noundef %25, ptr noundef %26)
  store ptr %27, ptr %5, align 8
  br label %37

28:                                               ; preds = %4
  %29 = load ptr, ptr %9, align 8, !tbaa !78
  %30 = load ptr, ptr %7, align 8, !tbaa !53
  %31 = load i32, ptr %8, align 4, !tbaa !8
  %32 = sext i32 %31 to i64
  call void @llvm.memcpy.p0.p0.i64(ptr align 1 %29, ptr align 1 %30, i64 %32, i1 false)
  %33 = load ptr, ptr %9, align 8, !tbaa !78
  %34 = load i32, ptr %8, align 4, !tbaa !8
  %35 = sext i32 %34 to i64
  %36 = getelementptr inbounds i8, ptr %33, i64 %35
  store ptr %36, ptr %5, align 8
  br label %37

37:                                               ; preds = %28, %23
  %38 = load ptr, ptr %5, align 8
  ret ptr %38
}

; Function Attrs: mustprogress uwtable
define linkonce_odr hidden void @_ZN6google8protobuf2io17CodedOutputStream8WriteRawEPKvi(ptr noundef nonnull align 8 dereferenceable(80) %0, ptr noundef %1, i32 noundef %2) #4 comdat align 2 {
  %4 = alloca ptr, align 8
  %5 = alloca ptr, align 8
  %6 = alloca i32, align 4
  store ptr %0, ptr %4, align 8, !tbaa !37
  store ptr %1, ptr %5, align 8, !tbaa !53
  store i32 %2, ptr %6, align 4, !tbaa !8
  %7 = load ptr, ptr %4, align 8
  %8 = getelementptr inbounds nuw %"class.google::protobuf::io::CodedOutputStream", ptr %7, i32 0, i32 0
  %9 = load ptr, ptr %5, align 8, !tbaa !53
  %10 = load i32, ptr %6, align 4, !tbaa !8
  %11 = getelementptr inbounds nuw %"class.google::protobuf::io::CodedOutputStream", ptr %7, i32 0, i32 1
  %12 = load ptr, ptr %11, align 8, !tbaa !39
  %13 = call noundef ptr @_ZN6google8protobuf2io19EpsCopyOutputStream8WriteRawEPKviPh(ptr noundef nonnull align 8 dereferenceable(59) %8, ptr noundef %9, i32 noundef %10, ptr noundef %12)
  %14 = getelementptr inbounds nuw %"class.google::protobuf::io::CodedOutputStream", ptr %7, i32 0, i32 1
  store ptr %13, ptr %14, align 8, !tbaa !39
  ret void
}

; Function Attrs: mustprogress uwtable
define internal void @_ZN6google8protobuf8internalL10WriteArrayImEEvPKT_iPNS0_2io17CodedOutputStreamE(ptr noundef %0, i32 noundef %1, ptr noundef %2) #4 {
  %4 = alloca ptr, align 8
  %5 = alloca i32, align 4
  %6 = alloca ptr, align 8
  store ptr %0, ptr %4, align 8, !tbaa !10
  store i32 %1, ptr %5, align 4, !tbaa !8
  store ptr %2, ptr %6, align 8, !tbaa !37
  %7 = load ptr, ptr %6, align 8, !tbaa !37
  %8 = load ptr, ptr %4, align 8, !tbaa !10
  %9 = load i32, ptr %5, align 4, !tbaa !8
  %10 = sext i32 %9 to i64
  %11 = mul i64 %10, 8
  %12 = trunc i64 %11 to i32
  call void @_ZN6google8protobuf2io17CodedOutputStream8WriteRawEPKvi(ptr noundef nonnull align 8 dereferenceable(80) %7, ptr noundef %8, i32 noundef %12)
  ret void
}

; Function Attrs: mustprogress uwtable
define hidden void @_ZN6google8protobuf8internal14WireFormatLite17WriteFixed64ArrayEPKmiPNS0_2io17CodedOutputStreamE(ptr noundef %0, i32 noundef %1, ptr noundef %2) #4 align 2 {
  %4 = alloca ptr, align 8
  %5 = alloca i32, align 4
  %6 = alloca ptr, align 8
  store ptr %0, ptr %4, align 8, !tbaa !10
  store i32 %1, ptr %5, align 4, !tbaa !8
  store ptr %2, ptr %6, align 8, !tbaa !37
  %7 = load ptr, ptr %4, align 8, !tbaa !10
  %8 = load i32, ptr %5, align 4, !tbaa !8
  %9 = load ptr, ptr %6, align 8, !tbaa !37
  call void @_ZN6google8protobuf8internalL10WriteArrayImEEvPKT_iPNS0_2io17CodedOutputStreamE(ptr noundef %7, i32 noundef %8, ptr noundef %9)
  ret void
}